; Function Attrs: nounwind uwtable
define internal void @fin_timeout(i32 %0, i16 signext %1, ptr noundef %2) #0 {
  %4 = load i32, ptr getelementptr inbounds nuw (i8, ptr @pmix_globals, i64 392), align 8, !tbaa !85
  %or.cond = icmp ult i32 %4, 64
  br i1 %or.cond, label %5, label %11

5:                                                ; preds = %3
  %6 = zext nneg i32 %4 to i64
  %7 = getelementptr inbounds nuw [0 x %struct.pmix_output_desc_t], ptr @pmix_output_info, i64 0, i64 %6, i32 2
  %8 = load i32, ptr %7, align 4, !tbaa !86
  %9 = icmp sgt i32 %8, 1
  br i1 %9, label %10, label %11

10:                                               ; preds = %5
  tail call void (i32, ptr, ...) @pmix_output(i32 noundef %4, ptr noundef nonnull @.str.88) #19
  br label %11

11:                                               ; preds = %10, %5, %3
  %12 = getelementptr inbounds nuw i8, ptr %2, i64 352
  %13 = load i8, ptr %12, align 8, !tbaa !209, !range !14, !noundef !15
  %14 = trunc nuw i8 %13 to i1
  br i1 %14, label %15, label %22

15:                                               ; preds = %11
  store i8 0, ptr %12, align 8, !tbaa !209
  %16 = getelementptr inbounds nuw i8, ptr %2, i64 128
  %17 = tail call i32 @pthread_mutex_lock(ptr noundef nonnull %16) #19
  %18 = getelementptr inbounds nuw i8, ptr %2, i64 216
  store volatile i8 0, ptr %18, align 8, !tbaa !207
  fence release
  %19 = getelementptr inbounds nuw i8, ptr %2, i64 168
  %20 = tail call i32 @pthread_cond_broadcast(ptr noundef nonnull %19) #19
  %21 = tail call i32 @pthread_mutex_unlock(ptr noundef nonnull %16) #19
  br label %22

22:                                               ; preds = %15, %11
  ret void
}